target datalayout = "e-m:e-p270:32:32-p271:32:32-p272:64:64-i64:64-i128:128-f80:128-n8:16:32:64-S128"
target triple = "x86_64-pc-linux-gnu"

@stderr = external global ptr, align 8
@.str.3 = private unnamed_addr constant [48 x i8] c"TRAJNG: BUG! Overflow in compression detected.\0A\00", align 1

; Function Attrs: nounwind uwtable
define internal void @trajcoder_base_compress(ptr noundef %0, i32 noundef %1, ptr noundef %2, ptr noundef %3) #0 {
  %5 = alloca ptr, align 8
  %6 = alloca i32, align 4
  %7 = alloca ptr, align 8
  %8 = alloca ptr, align 8
  %9 = alloca [19 x i32], align 16
  %10 = alloca [19 x i32], align 16
  %11 = alloca i32, align 4
  %12 = alloca i32, align 4
  %13 = alloca i32, align 4
  store ptr %0, ptr %5, align 8
  store i32 %1, ptr %6, align 4
  store ptr %2, ptr %7, align 8
  store ptr %3, ptr %8, align 8
  %14 = getelementptr inbounds [19 x i32], ptr %9, i64 0, i64 0
  call void @llvm.memset.p0.i64(ptr align 16 %14, i8 0, i64 76, i1 false)
  %15 = load i32, ptr %6, align 4
  %16 = icmp sgt i32 %15, 0
  br i1 %16, label %17, label %22

17:                                               ; preds = %4
  %18 = load ptr, ptr %5, align 8
  %19 = getelementptr inbounds i32, ptr %18, i64 0
  %20 = load i32, ptr %19, align 4
  %21 = getelementptr inbounds [19 x i32], ptr %9, i64 0, i64 0
  call void @Ptngc_largeint_add(i32 noundef %20, ptr noundef %21, i32 noundef 19)
  br label %22

22:                                               ; preds = %17, %4
  store i32 1, ptr %11, align 4
  br label %23

23:                                               ; preds = %47, %22
  %24 = load i32, ptr %11, align 4
  %25 = load i32, ptr %6, align 4
  %26 = icmp slt i32 %24, %25
  br i1 %26, label %27, label %50

27:                                               ; preds = %23
  %28 = load ptr, ptr %7, align 8
  %29 = load i32, ptr %11, align 4
  %30 = srem i32 %29, 3
  %31 = sext i32 %30 to i64
  %32 = getelementptr inbounds i32, ptr %28, i64 %31
  %33 = load i32, ptr %32, align 4
  %34 = sext i32 %33 to i64
  %35 = getelementptr inbounds [92 x i32], ptr @magic, i64 0, i64 %34
  %36 = load i32, ptr %35, align 4
  %37 = getelementptr inbounds [19 x i32], ptr %9, i64 0, i64 0
  %38 = getelementptr inbounds [19 x i32], ptr %10, i64 0, i64 0
  call void @Ptngc_largeint_mul(i32 noundef %36, ptr noundef %37, ptr noundef %38, i32 noundef 19)
  %39 = getelementptr inbounds [19 x i32], ptr %9, i64 0, i64 0
  %40 = getelementptr inbounds [19 x i32], ptr %10, i64 0, i64 0
  call void @llvm.memcpy.p0.p0.i64(ptr align 16 %39, ptr align 16 %40, i64 76, i1 false)
  %41 = load ptr, ptr %5, align 8
  %42 = load i32, ptr %11, align 4
  %43 = sext i32 %42 to i64
  %44 = getelementptr inbounds i32, ptr %41, i64 %43
  %45 = load i32, ptr %44, align 4
  %46 = getelementptr inbounds [19 x i32], ptr %9, i64 0, i64 0
  call void @Ptngc_largeint_add(i32 noundef %45, ptr noundef %46, i32 noundef 19)
  br label %47

47:                                               ; preds = %27
  %48 = load i32, ptr %11, align 4
  %49 = add nsw i32 %48, 1
  store i32 %49, ptr %11, align 4
  br label %23, !llvm.loop !40

50:                                               ; preds = %23
  %51 = getelementptr inbounds [19 x i32], ptr %9, i64 0, i64 18
  %52 = load i32, ptr %51, align 8
  %53 = icmp ne i32 %52, 0
  br i1 %53, label %54, label %57

54:                                               ; preds = %50
  %55 = load ptr, ptr @stderr, align 8
  %56 = call i32 (ptr, ptr, ...) @fprintf(ptr noundef %55, ptr noundef @.str.3) #7
  call void @exit(i32 noundef 1) #8
  unreachable

57:                                               ; preds = %50
  store i32 0, ptr %11, align 4
  br label %58

58:                                               ; preds = %87, %57
  %59 = load i32, ptr %11, align 4
  %60 = icmp slt i32 %59, 18
  br i1 %60, label %61, label %90

61:                                               ; preds = %58
  store i32 0, ptr %13, align 4
  store i32 0, ptr %12, align 4
  br label %62

62:                                               ; preds = %83, %61
  %63 = load i32, ptr %12, align 4
  %64 = icmp slt i32 %63, 4
  br i1 %64, label %65, label %86

65:                                               ; preds = %62
  %66 = load i32, ptr %11, align 4
  %67 = sext i32 %66 to i64
  %68 = getelementptr inbounds [19 x i32], ptr %9, i64 0, i64 %67
  %69 = load i32, ptr %68, align 4
  %70 = load i32, ptr %13, align 4
  %71 = lshr i32 %69, %70
  %72 = and i32 %71, 255
  %73 = trunc i32 %72 to i8
  %74 = load ptr, ptr %8, align 8
  %75 = load i32, ptr %11, align 4
  %76 = mul nsw i32 %75, 4
  %77 = load i32, ptr %12, align 4
  %78 = add nsw i32 %76, %77
  %79 = sext i32 %78 to i64
  %80 = getelementptr inbounds i8, ptr %74, i64 %79
  store i8 %73, ptr %80, align 1
  %81 = load i32, ptr %13, align 4
  %82 = add nsw i32 %81, 8
  store i32 %82, ptr %13, align 4
  br label %83

83:                                               ; preds = %65
  %84 = load i32, ptr %12, align 4
  %85 = add nsw i32 %84, 1
  store i32 %85, ptr %12, align 4
  br label %62, !llvm.loop !41

86:                                               ; preds = %62
  br label %87

87:                                               ; preds = %86
  %88 = load i32, ptr %11, align 4
  %89 = add nsw i32 %88, 1
  store i32 %89, ptr %11, align 4
  br label %58, !llvm.loop !42

90:                                               ; preds = %58
  ret void
}