; Function Attrs: nounwind uwtable
define internal fastcc void @trajcoder_base_compress(ptr nocapture noundef readonly %0, i32 noundef %1, ptr nocapture noundef readonly %2, ptr nocapture noundef writeonly %3) unnamed_addr #2 {
  %5 = alloca [19 x i32], align 16
  %6 = alloca [19 x i32], align 16
  call void @llvm.memset.p0.i64(ptr noundef nonnull align 16 dereferenceable(76) %5, i8 0, i64 76, i1 false)
  %7 = load i32, ptr %0, align 4
  call void @Ptngc_largeint_add(i32 noundef %7, ptr noundef nonnull %5, i32 noundef 19) #11
  %8 = icmp sgt i32 %1, 1
  br i1 %8, label %.lr.ph.preheader, label %._crit_edge

.lr.ph.preheader:                                 ; preds = %4
  %wide.trip.count = zext nneg i32 %1 to i64
  br label %.lr.ph

.lr.ph:                                           ; preds = %.lr.ph.preheader, %.lr.ph
  %indvars.iv = phi i64 [ 1, %.lr.ph.preheader ], [ %indvars.iv.next, %.lr.ph ]
  %9 = trunc nuw nsw i64 %indvars.iv to i32
  %10 = urem i32 %9, 3
  %11 = zext nneg i32 %10 to i64
  %12 = getelementptr inbounds i32, ptr %2, i64 %11
  %13 = load i32, ptr %12, align 4
  %14 = sext i32 %13 to i64
  %15 = getelementptr inbounds [92 x i32], ptr @magic, i64 0, i64 %14
  %16 = load i32, ptr %15, align 4
  call void @Ptngc_largeint_mul(i32 noundef %16, ptr noundef nonnull %5, ptr noundef nonnull %6, i32 noundef 19) #11
  call void @llvm.memcpy.p0.p0.i64(ptr noundef nonnull align 16 dereferenceable(76) %5, ptr noundef nonnull align 16 dereferenceable(76) %6, i64 76, i1 false)
  %17 = getelementptr inbounds i32, ptr %0, i64 %indvars.iv
  %18 = load i32, ptr %17, align 4
  call void @Ptngc_largeint_add(i32 noundef %18, ptr noundef nonnull %5, i32 noundef 19) #11
  %indvars.iv.next = add nuw nsw i64 %indvars.iv, 1
  %exitcond.not = icmp eq i64 %indvars.iv.next, %wide.trip.count
  br i1 %exitcond.not, label %._crit_edge, label %.lr.ph, !llvm.loop !13

._crit_edge:                                      ; preds = %.lr.ph, %4
  %19 = getelementptr inbounds i8, ptr %5, i64 72
  %20 = load i32, ptr %19, align 8
  %.not = icmp eq i32 %20, 0
  br i1 %.not, label %.preheader, label %21

21:                                               ; preds = %._crit_edge
  %22 = load ptr, ptr @stderr, align 8
  %23 = call i64 @fwrite(ptr nonnull @.str.3, i64 47, i64 1, ptr %22) #12
  call void @exit(i32 noundef 1) #13
  unreachable

.preheader:                                       ; preds = %._crit_edge, %31
  %indvars.iv30 = phi i64 [ %indvars.iv.next31, %31 ], [ 0, %._crit_edge ]
  %24 = getelementptr inbounds [19 x i32], ptr %5, i64 0, i64 %indvars.iv30
  %25 = load i32, ptr %24, align 4
  %26 = shl nuw nsw i64 %indvars.iv30, 2
  %invariant.gep = getelementptr i8, ptr %3, i64 %26
  br label %27

27:                                               ; preds = %.preheader, %27
  %indvars.iv26 = phi i64 [ 0, %.preheader ], [ %indvars.iv.next27, %27 ]
  %.023 = phi i32 [ 0, %.preheader ], [ %30, %27 ]
  %28 = lshr i32 %25, %.023
  %29 = trunc i32 %28 to i8
  %gep = getelementptr i8, ptr %invariant.gep, i64 %indvars.iv26
  store i8 %29, ptr %gep, align 1
  %30 = add nuw nsw i32 %.023, 8
  %indvars.iv.next27 = add nuw nsw i64 %indvars.iv26, 1
  %exitcond29.not = icmp eq i64 %indvars.iv.next27, 4
  br i1 %exitcond29.not, label %31, label %27, !llvm.loop !14

31:                                               ; preds = %27
  %indvars.iv.next31 = add nuw nsw i64 %indvars.iv30, 1
  %exitcond33.not = icmp eq i64 %indvars.iv.next31, 18
  br i1 %exitcond33.not, label %32, label %.preheader, !llvm.loop !15

32:                                               ; preds = %31
  ret void
}